
../gen/software.elf:     file format elf32-littleriscv


Disassembly of section .text:

00000000 <_start>:
   0:	00001137          	lui	sp,0x1
   4:	00010113          	mv	sp,sp
   8:	24c00293          	li	t0,588
   c:	25800313          	li	t1,600

00000010 <bss_loop>:
  10:	00628863          	beq	t0,t1,20 <bss_done>
  14:	0002a023          	sw	zero,0(t0)
  18:	00428293          	addi	t0,t0,4
  1c:	ff5ff06f          	j	10 <bss_loop>

00000020 <bss_done>:
  20:	060000ef          	jal	80 <main>

00000024 <halt>:
  24:	0000006f          	j	24 <halt>

00000028 <uart_putc>:
  28:	80002737          	lui	a4,0x80002
  2c:	00470713          	addi	a4,a4,4 # 80002004 <_stack_top+0x80001004>
  30:	00072783          	lw	a5,0(a4)
  34:	0017f793          	andi	a5,a5,1
  38:	fe079ce3          	bnez	a5,30 <uart_putc+0x8>
  3c:	800027b7          	lui	a5,0x80002
  40:	00a7a023          	sw	a0,0(a5) # 80002000 <_stack_top+0x80001000>
  44:	00008067          	ret

00000048 <uart_puts>:
  48:	ff010113          	addi	sp,sp,-16 # ff0 <_stack_base+0x3f0>
  4c:	00112623          	sw	ra,12(sp)
  50:	00812423          	sw	s0,8(sp)
  54:	00050413          	mv	s0,a0
  58:	00054503          	lbu	a0,0(a0)
  5c:	00050a63          	beqz	a0,70 <uart_puts+0x28>
  60:	00140413          	addi	s0,s0,1
  64:	fc5ff0ef          	jal	28 <uart_putc>
  68:	00044503          	lbu	a0,0(s0)
  6c:	fe051ae3          	bnez	a0,60 <uart_puts+0x18>
  70:	00c12083          	lw	ra,12(sp)
  74:	00812403          	lw	s0,8(sp)
  78:	01010113          	addi	sp,sp,16
  7c:	00008067          	ret

00000080 <main>:
  80:	fe010113          	addi	sp,sp,-32
  84:	00112e23          	sw	ra,28(sp)
  88:	00812c23          	sw	s0,24(sp)
  8c:	00912a23          	sw	s1,20(sp)
  90:	01212823          	sw	s2,16(sp)
  94:	01312623          	sw	s3,12(sp)
  98:	01412423          	sw	s4,8(sp)
  9c:	01512223          	sw	s5,4(sp)
  a0:	01612023          	sw	s6,0(sp)
  a4:	0007a7b7          	lui	a5,0x7a
  a8:	11f78793          	addi	a5,a5,287 # 7a11f <_stack_top+0x7911f>
  ac:	00000013          	nop
  b0:	00078713          	mv	a4,a5
  b4:	fff78793          	addi	a5,a5,-1
  b8:	fe071ae3          	bnez	a4,ac <main+0x2c>
  bc:	1a000513          	li	a0,416
  c0:	f89ff0ef          	jal	48 <uart_puts>
  c4:	1c800513          	li	a0,456
  c8:	f81ff0ef          	jal	48 <uart_puts>
  cc:	1ec00513          	li	a0,492
  d0:	f79ff0ef          	jal	48 <uart_puts>
  d4:	21000513          	li	a0,528
  d8:	f71ff0ef          	jal	48 <uart_puts>
  dc:	00000993          	li	s3,0
  e0:	80003ab7          	lui	s5,0x80003
  e4:	ccccd937          	lui	s2,0xccccd
  e8:	ccd90913          	addi	s2,s2,-819 # cccccccd <_stack_top+0xccccbccd>
  ec:	24c00413          	li	s0,588
  f0:	00100493          	li	s1,1
  f4:	408484b3          	sub	s1,s1,s0
  f8:	0300006f          	j	128 <main+0xa8>
  fc:	03000513          	li	a0,48
 100:	f29ff0ef          	jal	28 <uart_putc>
 104:	24800513          	li	a0,584
 108:	f41ff0ef          	jal	48 <uart_puts>
 10c:	00198993          	addi	s3,s3,1
 110:	004c57b7          	lui	a5,0x4c5
 114:	b3f78793          	addi	a5,a5,-1217 # 4c4b3f <_stack_top+0x4c3b3f>
 118:	00000013          	nop
 11c:	00078713          	mv	a4,a5
 120:	fff78793          	addi	a5,a5,-1
 124:	fe071ae3          	bnez	a4,118 <main+0x98>
 128:	03f9f793          	andi	a5,s3,63
 12c:	00faa023          	sw	a5,0(s5) # 80003000 <_stack_top+0x80002000>
 130:	23800513          	li	a0,568
 134:	f15ff0ef          	jal	48 <uart_puts>
 138:	00098613          	mv	a2,s3
 13c:	00000693          	li	a3,0
 140:	00900513          	li	a0,9
 144:	fa098ce3          	beqz	s3,fc <main+0x7c>
 148:	00068b13          	mv	s6,a3
 14c:	00168693          	addi	a3,a3,1
 150:	00d405b3          	add	a1,s0,a3
 154:	03263733          	mulhu	a4,a2,s2
 158:	00375713          	srli	a4,a4,0x3
 15c:	00271793          	slli	a5,a4,0x2
 160:	00e787b3          	add	a5,a5,a4
 164:	00179793          	slli	a5,a5,0x1
 168:	40f607b3          	sub	a5,a2,a5
 16c:	03078793          	addi	a5,a5,48
 170:	fef58fa3          	sb	a5,-1(a1)
 174:	00060793          	mv	a5,a2
 178:	00070613          	mv	a2,a4
 17c:	fcf566e3          	bltu	a0,a5,148 <main+0xc8>
 180:	f80682e3          	beqz	a3,104 <main+0x84>
 184:	01640b33          	add	s6,s0,s6
 188:	000b4503          	lbu	a0,0(s6)
 18c:	e9dff0ef          	jal	28 <uart_putc>
 190:	fffb0b13          	addi	s6,s6,-1
 194:	016487b3          	add	a5,s1,s6
 198:	fe0798e3          	bnez	a5,188 <main+0x108>
 19c:	f69ff06f          	j	104 <main+0x84>
 1a0:	0a0d                	.insn	2, 0x0a0d
 1a2:	3d3d                	.insn	2, 0x3d3d
 1a4:	3d3d                	.insn	2, 0x3d3d
 1a6:	3d3d                	.insn	2, 0x3d3d
 1a8:	3d3d                	.insn	2, 0x3d3d
 1aa:	3d3d                	.insn	2, 0x3d3d
 1ac:	3d3d                	.insn	2, 0x3d3d
 1ae:	3d3d                	.insn	2, 0x3d3d
 1b0:	3d3d                	.insn	2, 0x3d3d
 1b2:	3d3d                	.insn	2, 0x3d3d
 1b4:	3d3d                	.insn	2, 0x3d3d
 1b6:	3d3d                	.insn	2, 0x3d3d
 1b8:	3d3d                	.insn	2, 0x3d3d
 1ba:	3d3d                	.insn	2, 0x3d3d
 1bc:	3d3d                	.insn	2, 0x3d3d
 1be:	3d3d                	.insn	2, 0x3d3d
 1c0:	3d3d                	.insn	2, 0x3d3d
 1c2:	0a0d                	.insn	2, 0x0a0d
 1c4:	0000                	.insn	2, 0x
 1c6:	0000                	.insn	2, 0x
 1c8:	5020                	.insn	2, 0x5020
 1ca:	6369                	.insn	2, 0x6369
 1cc:	3356526f          	jal	tp,65d00 <_stack_top+0x64d00>
 1d0:	2032                	.insn	2, 0x2032
 1d2:	20436f53          	.insn	4, 0x20436f53
 1d6:	202d                	.insn	2, 0x202d
 1d8:	6548                	.insn	2, 0x6548
 1da:	6c6c                	.insn	2, 0x6c6c
 1dc:	6f57206f          	j	730d0 <_stack_top+0x720d0>
 1e0:	6c72                	.insn	2, 0x6c72
 1e2:	2164                	.insn	2, 0x2164
 1e4:	2020                	.insn	2, 0x2020
 1e6:	2020                	.insn	2, 0x2020
 1e8:	0a0d                	.insn	2, 0x0a0d
 1ea:	0000                	.insn	2, 0x
 1ec:	5120                	.insn	2, 0x5120
 1ee:	544d                	.insn	2, 0x544d
 1f0:	6365                	.insn	2, 0x6365
 1f2:	2068                	.insn	2, 0x2068
 1f4:	5045                	.insn	2, 0x5045
 1f6:	4334                	.insn	2, 0x4334
 1f8:	3545                	.insn	2, 0x3545
 1fa:	2035                	.insn	2, 0x2035
 1fc:	2040                	.insn	2, 0x2040
 1fe:	3035                	.insn	2, 0x3035
 200:	4d20                	.insn	2, 0x4d20
 202:	7a48                	.insn	2, 0x7a48
 204:	2020                	.insn	2, 0x2020
 206:	2020                	.insn	2, 0x2020
 208:	2020                	.insn	2, 0x2020
 20a:	2020                	.insn	2, 0x2020
 20c:	0a0d                	.insn	2, 0x0a0d
 20e:	0000                	.insn	2, 0x
 210:	3d3d                	.insn	2, 0x3d3d
 212:	3d3d                	.insn	2, 0x3d3d
 214:	3d3d                	.insn	2, 0x3d3d
 216:	3d3d                	.insn	2, 0x3d3d
 218:	3d3d                	.insn	2, 0x3d3d
 21a:	3d3d                	.insn	2, 0x3d3d
 21c:	3d3d                	.insn	2, 0x3d3d
 21e:	3d3d                	.insn	2, 0x3d3d
 220:	3d3d                	.insn	2, 0x3d3d
 222:	3d3d                	.insn	2, 0x3d3d
 224:	3d3d                	.insn	2, 0x3d3d
 226:	3d3d                	.insn	2, 0x3d3d
 228:	3d3d                	.insn	2, 0x3d3d
 22a:	3d3d                	.insn	2, 0x3d3d
 22c:	3d3d                	.insn	2, 0x3d3d
 22e:	3d3d                	.insn	2, 0x3d3d
 230:	0a0d                	.insn	2, 0x0a0d
 232:	0a0d                	.insn	2, 0x0a0d
 234:	0000                	.insn	2, 0x
 236:	0000                	.insn	2, 0x
 238:	6548                	.insn	2, 0x6548
 23a:	6c6c                	.insn	2, 0x6c6c
 23c:	6320216f          	jal	sp,286e <_stack_top+0x186e>
 240:	746e756f          	jal	a0,e7986 <_stack_top+0xe6986>
 244:	003d                	.insn	2, 0x003d
 246:	0000                	.insn	2, 0x
 248:	0a0d                	.insn	2, 0x0a0d
	...
